target datalayout = "e-m:e-p270:32:32-p271:32:32-p272:64:64-i64:64-i128:128-f80:128-n8:16:32:64-S128"
target triple = "x86_64-pc-linux-gnu"

%struct.FFStream = type { %struct.AVStream, ptr, i32, ptr, i32, ptr, i32, %struct.anon.1, i32, i32, %struct.FFFrac, ptr, ptr, i32, i32, i64, i64, i32, i32, i32, i64, i64, i64, i32, i64, i64, i64, i32, i32, [17 x i64], [17 x i8], [17 x i64], i64, i8, i8, %struct.AVRational, %struct.AVProbeData, ptr, i64, i32, i32, i32, ptr, i32, i32, i64, i64, ptr, %struct.AVRational }
%struct.AVStream = type { ptr, i32, i32, ptr, ptr, %struct.AVRational, i64, i64, i64, i32, i32, %struct.AVRational, ptr, %struct.AVRational, %struct.AVPacket, i32, %struct.AVRational, i32 }
%struct.AVPacket = type { ptr, i64, i64, ptr, i32, i32, i32, ptr, i32, i64, i64, ptr, ptr, %struct.AVRational }
%struct.anon.1 = type { ptr, i32 }
%struct.FFFrac = type { i64, i64, i64 }
%struct.AVProbeData = type { ptr, ptr, i32, ptr }
%struct.AVRational = type { i32, i32 }
%struct.AVCodecContext = type { ptr, i32, i32, ptr, i32, i32, ptr, ptr, ptr, i64, i32, i32, ptr, i32, %struct.AVRational, %struct.AVRational, %struct.AVRational, i32, i32, i32, i32, i32, %struct.AVRational, i32, i32, i32, i32, i32, i32, i32, i32, i32, i32, i32, ptr, ptr, i32, float, float, float, float, float, float, float, float, float, i32, i32, i32, i32, i32, i32, i32, i32, i32, i32, i32, i32, ptr, ptr, ptr, i32, i32, i32, i32, i32, i32, i32, i32, i32, i32, %struct.AVChannelLayout, i32, i32, i32, i32, i32, i32, i32, i32, ptr, i32, i32, i32, float, float, i32, i32, i32, i32, i32, ptr, i64, i64, float, float, i32, i32, ptr, ptr, i32, i32, i32, i32, i32, ptr, ptr, ptr, ptr, i32, i32, [8 x i64], i32, i32, i32, i32, i32, i32, i32, ptr, ptr, i32, i32, i32, i32, i32, i32, i32, i32, i32, i32, ptr, ptr, i32, i32, ptr, ptr, ptr, ptr, i32, i32, i64, i32, i32, i64, ptr, i64, ptr, i32, ptr, i32 }
%struct.AVChannelLayout = type { i32, i32, %union.anon.2, ptr }
%union.anon.2 = type { i64 }

; Function Attrs: nounwind uwtable
define internal i32 @codec_close(ptr noundef %0) #0 {
  %2 = alloca ptr, align 8
  %3 = alloca ptr, align 8
  %4 = alloca ptr, align 8
  %5 = alloca i32, align 4
  store ptr %0, ptr %2, align 8, !tbaa !11
  call void @llvm.lifetime.start.p0(i64 8, ptr %3) #13
  store ptr null, ptr %3, align 8, !tbaa !202
  call void @llvm.lifetime.start.p0(i64 8, ptr %4) #13
  store ptr null, ptr %4, align 8, !tbaa !318
  call void @llvm.lifetime.start.p0(i64 4, ptr %5) #13
  %6 = load ptr, ptr %2, align 8, !tbaa !11
  %7 = getelementptr inbounds nuw %struct.FFStream, ptr %6, i32 0, i32 5
  %8 = load ptr, ptr %7, align 8, !tbaa !107
  %9 = getelementptr inbounds nuw %struct.AVCodecContext, ptr %8, i32 0, i32 3
  %10 = load ptr, ptr %9, align 8, !tbaa !220
  %11 = call ptr @avcodec_alloc_context3(ptr noundef %10)
  store ptr %11, ptr %3, align 8, !tbaa !202
  %12 = load ptr, ptr %3, align 8, !tbaa !202
  %13 = icmp ne ptr %12, null
  br i1 %13, label %15, label %14

14:                                               ; preds = %1
  store i32 -12, ptr %5, align 4, !tbaa !50
  br label %48

15:                                               ; preds = %1
  %16 = call ptr @avcodec_parameters_alloc()
  store ptr %16, ptr %4, align 8, !tbaa !318
  %17 = load ptr, ptr %4, align 8, !tbaa !318
  %18 = icmp ne ptr %17, null
  br i1 %18, label %20, label %19

19:                                               ; preds = %15
  store i32 -12, ptr %5, align 4, !tbaa !50
  br label %48

20:                                               ; preds = %15
  %21 = load ptr, ptr %4, align 8, !tbaa !318
  %22 = load ptr, ptr %2, align 8, !tbaa !11
  %23 = getelementptr inbounds nuw %struct.FFStream, ptr %22, i32 0, i32 5
  %24 = load ptr, ptr %23, align 8, !tbaa !107
  %25 = call i32 @avcodec_parameters_from_context(ptr noundef %21, ptr noundef %24)
  store i32 %25, ptr %5, align 4, !tbaa !50
  %26 = load i32, ptr %5, align 4, !tbaa !50
  %27 = icmp slt i32 %26, 0
  br i1 %27, label %28, label %29

28:                                               ; preds = %20
  br label %48

29:                                               ; preds = %20
  %30 = load ptr, ptr %3, align 8, !tbaa !202
  %31 = load ptr, ptr %4, align 8, !tbaa !318
  %32 = call i32 @avcodec_parameters_to_context(ptr noundef %30, ptr noundef %31)
  store i32 %32, ptr %5, align 4, !tbaa !50
  %33 = load i32, ptr %5, align 4, !tbaa !50
  %34 = icmp slt i32 %33, 0
  br i1 %34, label %35, label %36

35:                                               ; preds = %29
  br label %48

36:                                               ; preds = %29
  %37 = load ptr, ptr %3, align 8, !tbaa !202
  %38 = getelementptr inbounds nuw %struct.AVCodecContext, ptr %37, i32 0, i32 15
  %39 = load ptr, ptr %2, align 8, !tbaa !11
  %40 = getelementptr inbounds nuw %struct.FFStream, ptr %39, i32 0, i32 5
  %41 = load ptr, ptr %40, align 8, !tbaa !107
  %42 = getelementptr inbounds nuw %struct.AVCodecContext, ptr %41, i32 0, i32 15
  call void @llvm.memcpy.p0.p0.i64(ptr align 4 %38, ptr align 4 %42, i64 8, i1 false), !tbaa.struct !195
  %43 = load ptr, ptr %2, align 8, !tbaa !11
  %44 = getelementptr inbounds nuw %struct.FFStream, ptr %43, i32 0, i32 5
  call void @avcodec_free_context(ptr noundef %44)
  %45 = load ptr, ptr %3, align 8, !tbaa !202
  %46 = load ptr, ptr %2, align 8, !tbaa !11
  %47 = getelementptr inbounds nuw %struct.FFStream, ptr %46, i32 0, i32 5
  store ptr %45, ptr %47, align 8, !tbaa !107
  store ptr null, ptr %3, align 8, !tbaa !202
  store i32 0, ptr %5, align 4, !tbaa !50
  br label %48

48:                                               ; preds = %36, %35, %28, %19, %14
  call void @avcodec_free_context(ptr noundef %3)
  call void @avcodec_parameters_free(ptr noundef %4)
  %49 = load i32, ptr %5, align 4, !tbaa !50
  call void @llvm.lifetime.end.p0(i64 4, ptr %5) #13
  call void @llvm.lifetime.end.p0(i64 8, ptr %4) #13
  call void @llvm.lifetime.end.p0(i64 8, ptr %3) #13
  ret i32 %49
}