; Function Attrs: nounwind uwtable
define internal fastcc range(i32 -2147483648, 1) i32 @codec_close(ptr noundef %0) unnamed_addr #1 {
  %2 = alloca ptr, align 8
  %3 = alloca ptr, align 8
  call void @llvm.lifetime.start.p0(i64 8, ptr nonnull %2) #15
  call void @llvm.lifetime.start.p0(i64 8, ptr nonnull %3) #15
  store ptr null, ptr %3, align 8, !tbaa !325
  %4 = getelementptr inbounds nuw i8, ptr %0, i64 248
  %5 = load ptr, ptr %4, align 8, !tbaa !93
  %6 = getelementptr inbounds nuw i8, ptr %5, i64 16
  %7 = load ptr, ptr %6, align 8, !tbaa !216
  %8 = tail call ptr @avcodec_alloc_context3(ptr noundef %7) #15
  store ptr %8, ptr %2, align 8, !tbaa !326
  %.not = icmp eq ptr %8, null
  br i1 %.not, label %23, label %9

9:                                                ; preds = %1
  %10 = tail call ptr @avcodec_parameters_alloc() #15
  store ptr %10, ptr %3, align 8, !tbaa !325
  %.not10 = icmp eq ptr %10, null
  br i1 %.not10, label %23, label %11

11:                                               ; preds = %9
  %12 = load ptr, ptr %4, align 8, !tbaa !93
  %13 = tail call i32 @avcodec_parameters_from_context(ptr noundef nonnull %10, ptr noundef %12) #15
  %14 = icmp slt i32 %13, 0
  br i1 %14, label %23, label %15

15:                                               ; preds = %11
  %16 = tail call i32 @avcodec_parameters_to_context(ptr noundef nonnull %8, ptr noundef nonnull %10) #15
  %17 = icmp slt i32 %16, 0
  br i1 %17, label %23, label %18

18:                                               ; preds = %15
  %19 = getelementptr inbounds nuw i8, ptr %8, i64 92
  %20 = load ptr, ptr %4, align 8, !tbaa !93
  %21 = getelementptr inbounds nuw i8, ptr %20, i64 92
  %22 = load i64, ptr %21, align 4
  store i64 %22, ptr %19, align 4
  tail call void @avcodec_free_context(ptr noundef nonnull %4) #15
  store ptr %8, ptr %4, align 8, !tbaa !93
  store ptr null, ptr %2, align 8, !tbaa !326
  br label %23

23:                                               ; preds = %9, %1, %15, %11, %18
  %.0 = phi i32 [ %13, %11 ], [ %16, %15 ], [ 0, %18 ], [ -12, %1 ], [ -12, %9 ]
  call void @avcodec_free_context(ptr noundef nonnull %2) #15
  call void @avcodec_parameters_free(ptr noundef nonnull %3) #15
  call void @llvm.lifetime.end.p0(i64 8, ptr nonnull %3) #15
  call void @llvm.lifetime.end.p0(i64 8, ptr nonnull %2) #15
  ret i32 %.0
}